	.file	"factorial.c"
	.text
	.def	scanf;	.scl	3;	.type	32;	.endef
	.seh_proc	scanf
scanf:
	pushq	%rbp
	.seh_pushreg	%rbp
	pushq	%rbx
	.seh_pushreg	%rbx
	subq	$56, %rsp
	.seh_stackalloc	56
	leaq	48(%rsp), %rbp
	.seh_setframe	%rbp, 48
	.seh_endprologue
	movq	%rcx, 32(%rbp)
	movq	%rdx, 40(%rbp)
	movq	%r8, 48(%rbp)
	movq	%r9, 56(%rbp)
	leaq	40(%rbp), %rax
	movq	%rax, -16(%rbp)
	movq	-16(%rbp), %rbx
	movl	$0, %ecx
	movq	__imp___acrt_iob_func(%rip), %rax
	call	*%rax
	movq	%rbx, %r8
	movq	32(%rbp), %rdx
	movq	%rax, %rcx
	call	__mingw_vfscanf
	movl	%eax, -4(%rbp)
	movl	-4(%rbp), %eax
	addq	$56, %rsp
	popq	%rbx
	popq	%rbp
	ret
	.seh_endproc
	.def	printf;	.scl	3;	.type	32;	.endef
	.seh_proc	printf
printf:
	pushq	%rbp
	.seh_pushreg	%rbp
	pushq	%rbx
	.seh_pushreg	%rbx
	subq	$56, %rsp
	.seh_stackalloc	56
	leaq	48(%rsp), %rbp
	.seh_setframe	%rbp, 48
	.seh_endprologue
	movq	%rcx, 32(%rbp)
	movq	%rdx, 40(%rbp)
	movq	%r8, 48(%rbp)
	movq	%r9, 56(%rbp)
	leaq	40(%rbp), %rax
	movq	%rax, -16(%rbp)
	movq	-16(%rbp), %rbx
	movl	$1, %ecx
	movq	__imp___acrt_iob_func(%rip), %rax
	call	*%rax
	movq	%rbx, %r8
	movq	32(%rbp), %rdx
	movq	%rax, %rcx
	call	__mingw_vfprintf
	movl	%eax, -4(%rbp)
	movl	-4(%rbp), %eax
	addq	$56, %rsp
	popq	%rbx
	popq	%rbp
	ret
	.seh_endproc
	.globl	factorial
	.def	factorial;	.scl	2;	.type	32;	.endef
	.seh_proc	factorial
factorial:
	pushq	%rbp
	.seh_pushreg	%rbp
	movq	%rsp, %rbp
	.seh_setframe	%rbp, 0
	subq	$16, %rsp
	.seh_stackalloc	16
	.seh_endprologue
	movl	%ecx, 16(%rbp)
	cmpl	$0, 16(%rbp)
	jns	.L6
	movl	$0, %eax
	jmp	.L7
.L6:
	movq	$1, -8(%rbp)
	movl	$2, -12(%rbp)
	jmp	.L8
.L9:
	movl	-12(%rbp), %eax
	cltq
	movq	-8(%rbp), %rdx
	imulq	%rdx, %rax
	movq	%rax, -8(%rbp)
	addl	$1, -12(%rbp)
.L8:
	movl	-12(%rbp), %eax
	cmpl	16(%rbp), %eax
	jle	.L9
	movq	-8(%rbp), %rax
.L7:
	addq	$16, %rsp
	popq	%rbp
	ret
	.seh_endproc
	.def	__main;	.scl	2;	.type	32;	.endef
	.section .rdata,"dr"
	.align 8
.LC0:
	.ascii "Enter a non-negative integer: \0"
.LC1:
	.ascii "%d\0"
	.align 8
.LC2:
	.ascii "Factorial is not defined for negative numbers.\12\0"
.LC3:
	.ascii "%d! = %llu\12\0"
	.text
	.globl	main
	.def	main;	.scl	2;	.type	32;	.endef
	.seh_proc	main
main:
	pushq	%rbp
	.seh_pushreg	%rbp
	movq	%rsp, %rbp
	.seh_setframe	%rbp, 0
	subq	$48, %rsp
	.seh_stackalloc	48
	.seh_endprologue
	call	__main
	leaq	.LC0(%rip), %rax
	movq	%rax, %rcx
	call	printf
	leaq	-4(%rbp), %rax
	movq	%rax, %rdx
	leaq	.LC1(%rip), %rax
	movq	%rax, %rcx
	call	scanf
	movl	-4(%rbp), %eax
	testl	%eax, %eax
	jns	.L11
	leaq	.LC2(%rip), %rax
	movq	%rax, %rcx
	call	printf
	jmp	.L12
.L11:
	movl	-4(%rbp), %eax
	movl	%eax, %ecx
	call	factorial
	movq	%rax, %rdx
	movl	-4(%rbp), %eax
	movq	%rdx, %r8
	movl	%eax, %edx
	leaq	.LC3(%rip), %rax
	movq	%rax, %rcx
	call	printf
.L12:
	movl	$0, %eax
	addq	$48, %rsp
	popq	%rbp
	ret
	.seh_endproc
	.ident	"GCC: (GNU) 11.2.0"
	.def	__mingw_vfscanf;	.scl	2;	.type	32;	.endef
	.def	__mingw_vfprintf;	.scl	2;	.type	32;	.endef
